; Function Attrs: mustprogress nounwind uwtable
define hidden noundef zeroext i1 @_ZN13ObjectMonitor11check_ownerEP10JavaThread(ptr noundef nonnull align 8 dereferenceable(200) %0, ptr noundef %1) local_unnamed_addr #0 align 2 {
  %3 = getelementptr inbounds i8, ptr %0, i64 64
  %4 = load volatile ptr, ptr %3, align 8
  %5 = icmp eq ptr %4, %1
  br i1 %5, label %19, label %6

6:                                                ; preds = %2
  %7 = load i32, ptr @LockingMode, align 4
  %.not = icmp eq i32 %7, 2
  br i1 %.not, label %17, label %8

8:                                                ; preds = %6
  %9 = tail call noundef zeroext i1 @_ZNK10JavaThread13is_lock_ownedEPh(ptr noundef nonnull align 8 dereferenceable(1800) %1, ptr noundef %4) #12
  br i1 %9, label %10, label %17

10:                                               ; preds = %8
  store volatile ptr %1, ptr %3, align 8
  %11 = load volatile ptr, ptr getelementptr inbounds (i8, ptr @_ZN16LogTagSetMappingILN6LogTag4typeE90ELS1_106ELS1_0ELS1_0ELS1_0ELS1_0EE7_tagsetE, i64 48), align 8
  %.not.i = icmp eq ptr %11, null
  br i1 %.not.i, label %_ZN13ObjectMonitor24set_owner_from_BasicLockEPvP10JavaThread.exit, label %12

12:                                               ; preds = %10
  %13 = ptrtoint ptr %0 to i64
  %14 = ptrtoint ptr %4 to i64
  %15 = ptrtoint ptr %1 to i64
  tail call void (ptr, ...) @_ZN7LogImplILN6LogTag4typeE90ELS1_106ELS1_0ELS1_0ELS1_0ELS1_0EE5writeILN8LogLevel4typeE1EEEvPKcz(ptr noundef nonnull @.str.55, i64 noundef %13, i64 noundef %14, i64 noundef %15)
  br label %_ZN13ObjectMonitor24set_owner_from_BasicLockEPvP10JavaThread.exit

_ZN13ObjectMonitor24set_owner_from_BasicLockEPvP10JavaThread.exit: ; preds = %10, %12
  %16 = getelementptr inbounds i8, ptr %0, i64 136
  store volatile i64 0, ptr %16, align 8
  br label %19

17:                                               ; preds = %8, %6
  %18 = load ptr, ptr getelementptr inbounds (i8, ptr @_ZN6Symbol11_vm_symbolsE, i64 1120), align 8
  tail call void @_ZN10Exceptions10_throw_msgEP10JavaThreadPKciP6SymbolS3_(ptr noundef %1, ptr noundef nonnull @.str, i32 noundef 1439, ptr noundef %18, ptr noundef nonnull @.str.28) #12
  br label %19

19:                                               ; preds = %2, %17, %_ZN13ObjectMonitor24set_owner_from_BasicLockEPvP10JavaThread.exit
  %.0 = phi i1 [ true, %_ZN13ObjectMonitor24set_owner_from_BasicLockEPvP10JavaThread.exit ], [ false, %17 ], [ true, %2 ]
  ret i1 %.0
}